; Function Attrs: mustprogress nounwind uwtable
define hidden void @_Z16print_raw_memoryR12FormatBufferILm8192EEPv(ptr noundef nonnull align 8 dereferenceable(8200) %0, ptr noundef %1) local_unnamed_addr #0 {
  %3 = alloca %class.stringStream, align 8
  %4 = load ptr, ptr @_ZN8Universe14_collectedHeapE, align 8
  %5 = load ptr, ptr %4, align 8
  %6 = getelementptr inbounds i8, ptr %5, i64 128
  %7 = load ptr, ptr %6, align 8
  %8 = tail call noundef zeroext i1 %7(ptr noundef nonnull align 8 dereferenceable(2657) %4, ptr noundef %1) #10
  br i1 %8, label %9, label %_ZNK14ShenandoahHeap22heap_region_containingEPKv.exit.thread

9:                                                ; preds = %2
  %10 = ptrtoint ptr %1 to i64
  %11 = getelementptr inbounds i8, ptr %4, i64 520
  %12 = load ptr, ptr %11, align 8
  %13 = ptrtoint ptr %12 to i64
  %14 = sub i64 %10, %13
  %15 = load i64, ptr @_ZN20ShenandoahHeapRegion20RegionSizeBytesShiftE, align 8
  %16 = lshr i64 %14, %15
  %17 = getelementptr inbounds i8, ptr %4, i64 544
  %18 = load i64, ptr %17, align 8
  %19 = icmp ugt i64 %18, %16
  br i1 %19, label %_ZNK14ShenandoahHeap22heap_region_containingEPKv.exit, label %_ZNK14ShenandoahHeap22heap_region_containingEPKv.exit.thread

_ZNK14ShenandoahHeap22heap_region_containingEPKv.exit: ; preds = %9
  %20 = getelementptr inbounds i8, ptr %4, i64 552
  %21 = load ptr, ptr %20, align 8
  %22 = getelementptr inbounds ptr, ptr %21, i64 %16
  %23 = load ptr, ptr %22, align 8
  %.not = icmp eq ptr %23, null
  br i1 %.not, label %_ZNK14ShenandoahHeap22heap_region_containingEPKv.exit.thread, label %24

24:                                               ; preds = %_ZNK14ShenandoahHeap22heap_region_containingEPKv.exit
  %25 = getelementptr inbounds i8, ptr %23, i64 40
  %26 = load i32, ptr %25, align 8
  %.not21 = icmp eq i32 %26, 0
  br i1 %.not21, label %_ZNK14ShenandoahHeap22heap_region_containingEPKv.exit.thread, label %27

27:                                               ; preds = %24
  %28 = getelementptr inbounds i8, ptr %23, i64 8
  %29 = load ptr, ptr %28, align 8
  %30 = getelementptr inbounds i8, ptr %1, i64 -32
  %31 = icmp ugt ptr %29, %30
  %32 = select i1 %31, ptr %29, ptr %30
  %33 = getelementptr inbounds i8, ptr %23, i64 16
  %34 = load ptr, ptr %33, align 8
  %35 = getelementptr inbounds i8, ptr %1, i64 128
  %36 = icmp ult ptr %34, %35
  %37 = select i1 %36, ptr %34, ptr %35
  %.not18 = icmp ult ptr %32, %37
  br i1 %.not18, label %38, label %_ZNK14ShenandoahHeap22heap_region_containingEPKv.exit.thread

38:                                               ; preds = %27
  call void @_ZN12stringStreamC1Em(ptr noundef nonnull align 8 dereferenceable(129) %3, i64 noundef 0) #10
  call void @_ZN2os14print_hex_dumpEP12outputStreamPKhS3_ibiS3_(ptr noundef nonnull %3, ptr noundef nonnull %32, ptr noundef nonnull %37, i32 noundef 4, i1 noundef zeroext true, i32 noundef 16, ptr noundef nonnull %32) #10
  call void (ptr, ptr, ...) @_ZN12FormatBufferILm8192EE6appendEPKcz(ptr noundef nonnull align 8 dereferenceable(8200) %0, ptr noundef nonnull @.str)
  %39 = getelementptr inbounds i8, ptr %3, i64 56
  %40 = load ptr, ptr %39, align 8
  call void (ptr, ptr, ...) @_ZN12FormatBufferILm8192EE6appendEPKcz(ptr noundef nonnull align 8 dereferenceable(8200) %0, ptr noundef nonnull @.str.4, ptr noundef %40)
  call void @_ZN12stringStreamD1Ev(ptr noundef nonnull align 8 dereferenceable(129) %3) #10
  br label %_ZNK14ShenandoahHeap22heap_region_containingEPKv.exit.thread

_ZNK14ShenandoahHeap22heap_region_containingEPKv.exit.thread: ; preds = %9, %27, %2, %38, %24, %_ZNK14ShenandoahHeap22heap_region_containingEPKv.exit
  ret void
}